#include <math.h>
#include <stdio.h>
#include <stdlib.h>
#include <string.h>
#include <iostream>
using namespace std;

int sum=0,g,f;
int divide (int chushu,int a)
{
    int i;
    for (i=chushu;i<=a;i++)
    {
        if (a%i==0)
        {
            f=a/i;
            if (f>1)
            {g=i;divide (g,f);}
            else
            {
                sum++;
            }
         }

}   return sum;
}
int main()
{
    int n=0;
    cin>>n;
    int p=0;
    for (p=0;p<n;p++)
    {
       int b=0,c=2;
       cin>>b;
    sum=0;
    cout<<divide (c,b)<<endl;
    }

    return 0;
}